target datalayout = "e-m:e-p270:32:32-p271:32:32-p272:64:64-i64:64-i128:128-f80:128-n8:16:32:64-S128"
target triple = "x86_64-pc-linux-gnu"

%struct.VLCElem = type { %union.anon }
%union.anon = type { %struct.anon }
%struct.anon = type { i16, i16 }
%struct.VLCInitState = type { ptr, i32 }

@__const.ff_h264_decode_init_vlc.state = private unnamed_addr constant { ptr, i32, [4 x i8] } { ptr @run7_vlc_table, i32 9460, [4 x i8] zeroinitializer }, align 8
@chroma_dc_coeff_token_vlc_table = internal global [256 x %struct.VLCElem] zeroinitializer, align 16
@chroma_dc_coeff_token_len = internal constant [20 x i8] c"\02\00\00\00\06\01\00\00\06\06\03\00\06\07\07\06\06\08\08\07", align 16
@chroma_dc_coeff_token_bits = internal constant [20 x i8] c"\01\00\00\00\07\01\00\00\04\06\01\00\03\03\02\05\02\03\02\00", align 16
@chroma422_dc_coeff_token_vlc_table = internal global [8192 x %struct.VLCElem] zeroinitializer, align 16
@chroma422_dc_coeff_token_len = internal constant [36 x i8] c"\01\00\00\00\07\02\00\00\07\07\03\00\09\07\07\05\09\09\07\06\0A\0A\09\07\0B\0B\0A\07\0C\0C\0B\0A\0D\0C\0C\0B", align 16
@chroma422_dc_coeff_token_bits = internal constant [36 x i8] c"\01\00\00\00\0F\01\00\00\0E\0D\01\00\07\0C\0B\01\06\05\0A\01\07\06\04\09\07\06\05\08\07\06\05\04\07\05\04\04", align 16
@run_vlc = internal global [7 x ptr] zeroinitializer, align 16
@ff_h264_decode_init_vlc.coeff_token_table_index = internal constant [17 x i8] c"\00\00\01\01\02\02\02\02\03\03\03\03\03\03\03\03\03", align 16
@coeff_token_vlc = internal global [17 x ptr] zeroinitializer, align 16
@chroma_dc_total_zeros_len = internal constant [3 x [4 x i8]] [[4 x i8] c"\01\02\03\03", [4 x i8] c"\01\02\02\00", [4 x i8] c"\01\01\00\00"], align 1
@chroma_dc_total_zeros_bits = internal constant [3 x [4 x i8]] [[4 x i8] c"\01\01\01\00", [4 x i8] c"\01\01\00\00", [4 x i8] c"\01\00\00\00"], align 1
@chroma_dc_total_zeros_vlc = internal global [4 x ptr] zeroinitializer, align 16
@chroma422_dc_total_zeros_vlc = internal global [8 x ptr] zeroinitializer, align 16
@total_zeros_vlc = internal global [16 x ptr] zeroinitializer, align 16

; Function Attrs: inlinehint nounwind uwtable
define internal ptr @ff_vlc_init_tables(ptr noundef %0, i32 noundef %1, i32 noundef %2, ptr noundef %3, i32 noundef %4, i32 noundef %5, ptr noundef %6, i32 noundef %7, i32 noundef %8, i32 noundef %9) #4 {
  %11 = alloca ptr, align 8
  %12 = alloca i32, align 4
  %13 = alloca i32, align 4
  %14 = alloca ptr, align 8
  %15 = alloca i32, align 4
  %16 = alloca i32, align 4
  %17 = alloca ptr, align 8
  %18 = alloca i32, align 4
  %19 = alloca i32, align 4
  %20 = alloca i32, align 4
  store ptr %0, ptr %11, align 8, !tbaa !19
  store i32 %1, ptr %12, align 4, !tbaa !4
  store i32 %2, ptr %13, align 4, !tbaa !4
  store ptr %3, ptr %14, align 8, !tbaa !21
  store i32 %4, ptr %15, align 4, !tbaa !4
  store i32 %5, ptr %16, align 4, !tbaa !4
  store ptr %6, ptr %17, align 8, !tbaa !21
  store i32 %7, ptr %18, align 4, !tbaa !4
  store i32 %8, ptr %19, align 4, !tbaa !4
  store i32 %9, ptr %20, align 4, !tbaa !4
  %21 = load ptr, ptr %11, align 8, !tbaa !19
  %22 = load i32, ptr %12, align 4, !tbaa !4
  %23 = load i32, ptr %13, align 4, !tbaa !4
  %24 = load ptr, ptr %14, align 8, !tbaa !21
  %25 = load i32, ptr %15, align 4, !tbaa !4
  %26 = load i32, ptr %16, align 4, !tbaa !4
  %27 = load ptr, ptr %17, align 8, !tbaa !21
  %28 = load i32, ptr %18, align 4, !tbaa !4
  %29 = load i32, ptr %19, align 4, !tbaa !4
  %30 = load i32, ptr %20, align 4, !tbaa !4
  %31 = call ptr @ff_vlc_init_tables_sparse(ptr noundef %21, i32 noundef %22, i32 noundef %23, ptr noundef %24, i32 noundef %25, i32 noundef %26, ptr noundef %27, i32 noundef %28, i32 noundef %29, ptr noundef null, i32 noundef 0, i32 noundef 0, i32 noundef %30)
  ret ptr %31
}

; Function Attrs: cold nounwind optsize uwtable
define void @ff_h264_decode_init_vlc() #0 {
  %1 = alloca [4 x ptr], align 16
  %2 = alloca %struct.VLCInitState, align 8
  %3 = alloca i32, align 4
  %4 = alloca i32, align 4
  %5 = alloca i32, align 4
  %6 = alloca i32, align 4
  %7 = alloca i32, align 4
  %8 = alloca i32, align 4
  call void @llvm.lifetime.start.p0(i64 32, ptr %1) #10
  call void @llvm.lifetime.start.p0(i64 16, ptr %2) #10
  call void @llvm.memcpy.p0.p0.i64(ptr align 8 %2, ptr align 8 @__const.ff_h264_decode_init_vlc.state, i64 16, i1 false)
  call void @ff_vlc_init_table_sparse(ptr noundef @chroma_dc_coeff_token_vlc_table, i32 noundef 256, i32 noundef 8, i32 noundef 20, ptr noundef @chroma_dc_coeff_token_len, i32 noundef 1, i32 noundef 1, ptr noundef @chroma_dc_coeff_token_bits, i32 noundef 1, i32 noundef 1, ptr noundef null, i32 noundef 0, i32 noundef 0, i32 noundef 0)
  call void @ff_vlc_init_table_sparse(ptr noundef @chroma422_dc_coeff_token_vlc_table, i32 noundef 8192, i32 noundef 13, i32 noundef 36, ptr noundef @chroma422_dc_coeff_token_len, i32 noundef 1, i32 noundef 1, ptr noundef @chroma422_dc_coeff_token_bits, i32 noundef 1, i32 noundef 1, ptr noundef null, i32 noundef 0, i32 noundef 0, i32 noundef 0)
  %9 = call ptr @ff_vlc_init_tables(ptr noundef %2, i32 noundef 6, i32 noundef 16, ptr noundef getelementptr inbounds ([7 x [16 x i8]], ptr @run_len, i64 0, i64 6), i32 noundef 1, i32 noundef 1, ptr noundef getelementptr inbounds ([7 x [16 x i8]], ptr @run_bits, i64 0, i64 6), i32 noundef 1, i32 noundef 1, i32 noundef 0)
  call void @llvm.lifetime.start.p0(i64 4, ptr %3) #10
  store i32 0, ptr %3, align 4, !tbaa !4
  br label %10

10:                                               ; preds = %28, %0
  %11 = load i32, ptr %3, align 4, !tbaa !4
  %12 = icmp slt i32 %11, 6
  br i1 %12, label %14, label %13

13:                                               ; preds = %10
  call void @llvm.lifetime.end.p0(i64 4, ptr %3) #10
  br label %31

14:                                               ; preds = %10
  %15 = load i32, ptr %3, align 4, !tbaa !4
  %16 = sext i32 %15 to i64
  %17 = getelementptr inbounds [7 x [16 x i8]], ptr @run_len, i64 0, i64 %16
  %18 = getelementptr inbounds [16 x i8], ptr %17, i64 0, i64 0
  %19 = load i32, ptr %3, align 4, !tbaa !4
  %20 = sext i32 %19 to i64
  %21 = getelementptr inbounds [7 x [16 x i8]], ptr @run_bits, i64 0, i64 %20
  %22 = getelementptr inbounds [16 x i8], ptr %21, i64 0, i64 0
  %23 = call ptr @ff_vlc_init_tables(ptr noundef %2, i32 noundef 3, i32 noundef 7, ptr noundef %18, i32 noundef 1, i32 noundef 1, ptr noundef %22, i32 noundef 1, i32 noundef 1, i32 noundef 0)
  %24 = load i32, ptr %3, align 4, !tbaa !4
  %25 = add nsw i32 %24, 1
  %26 = sext i32 %25 to i64
  %27 = getelementptr inbounds [7 x ptr], ptr @run_vlc, i64 0, i64 %26
  store ptr %23, ptr %27, align 8, !tbaa !8
  br label %28

28:                                               ; preds = %14
  %29 = load i32, ptr %3, align 4, !tbaa !4
  %30 = add nsw i32 %29, 1
  store i32 %30, ptr %3, align 4, !tbaa !4
  br label %10, !llvm.loop !11

31:                                               ; preds = %13
  call void @llvm.lifetime.start.p0(i64 4, ptr %4) #10
  store i32 0, ptr %4, align 4, !tbaa !4
  br label %32

32:                                               ; preds = %49, %31
  %33 = load i32, ptr %4, align 4, !tbaa !4
  %34 = icmp slt i32 %33, 4
  br i1 %34, label %36, label %35

35:                                               ; preds = %32
  call void @llvm.lifetime.end.p0(i64 4, ptr %4) #10
  br label %52

36:                                               ; preds = %32
  %37 = load i32, ptr %4, align 4, !tbaa !4
  %38 = sext i32 %37 to i64
  %39 = getelementptr inbounds [4 x [68 x i8]], ptr @coeff_token_len, i64 0, i64 %38
  %40 = getelementptr inbounds [68 x i8], ptr %39, i64 0, i64 0
  %41 = load i32, ptr %4, align 4, !tbaa !4
  %42 = sext i32 %41 to i64
  %43 = getelementptr inbounds [4 x [68 x i8]], ptr @coeff_token_bits, i64 0, i64 %42
  %44 = getelementptr inbounds [68 x i8], ptr %43, i64 0, i64 0
  %45 = call ptr @ff_vlc_init_tables(ptr noundef %2, i32 noundef 8, i32 noundef 68, ptr noundef %40, i32 noundef 1, i32 noundef 1, ptr noundef %44, i32 noundef 1, i32 noundef 1, i32 noundef 0)
  %46 = load i32, ptr %4, align 4, !tbaa !4
  %47 = sext i32 %46 to i64
  %48 = getelementptr inbounds [4 x ptr], ptr %1, i64 0, i64 %47
  store ptr %45, ptr %48, align 8, !tbaa !8
  br label %49

49:                                               ; preds = %36
  %50 = load i32, ptr %4, align 4, !tbaa !4
  %51 = add nsw i32 %50, 1
  store i32 %51, ptr %4, align 4, !tbaa !4
  br label %32, !llvm.loop !13

52:                                               ; preds = %35
  call void @llvm.lifetime.start.p0(i64 4, ptr %5) #10
  store i32 0, ptr %5, align 4, !tbaa !4
  br label %53

53:                                               ; preds = %69, %52
  %54 = load i32, ptr %5, align 4, !tbaa !4
  %55 = sext i32 %54 to i64
  %56 = icmp ult i64 %55, 17
  br i1 %56, label %58, label %57

57:                                               ; preds = %53
  call void @llvm.lifetime.end.p0(i64 4, ptr %5) #10
  br label %72

58:                                               ; preds = %53
  %59 = load i32, ptr %5, align 4, !tbaa !4
  %60 = sext i32 %59 to i64
  %61 = getelementptr inbounds [17 x i8], ptr @ff_h264_decode_init_vlc.coeff_token_table_index, i64 0, i64 %60
  %62 = load i8, ptr %61, align 1, !tbaa !14
  %63 = zext i8 %62 to i64
  %64 = getelementptr inbounds nuw [4 x ptr], ptr %1, i64 0, i64 %63
  %65 = load ptr, ptr %64, align 8, !tbaa !8
  %66 = load i32, ptr %5, align 4, !tbaa !4
  %67 = sext i32 %66 to i64
  %68 = getelementptr inbounds [17 x ptr], ptr @coeff_token_vlc, i64 0, i64 %67
  store ptr %65, ptr %68, align 8, !tbaa !8
  br label %69

69:                                               ; preds = %58
  %70 = load i32, ptr %5, align 4, !tbaa !4
  %71 = add nsw i32 %70, 1
  store i32 %71, ptr %5, align 4, !tbaa !4
  br label %53, !llvm.loop !15

72:                                               ; preds = %57
  call void @llvm.lifetime.start.p0(i64 4, ptr %6) #10
  store i32 0, ptr %6, align 4, !tbaa !4
  br label %73

73:                                               ; preds = %91, %72
  %74 = load i32, ptr %6, align 4, !tbaa !4
  %75 = icmp slt i32 %74, 3
  br i1 %75, label %77, label %76

76:                                               ; preds = %73
  call void @llvm.lifetime.end.p0(i64 4, ptr %6) #10
  br label %94

77:                                               ; preds = %73
  %78 = load i32, ptr %6, align 4, !tbaa !4
  %79 = sext i32 %78 to i64
  %80 = getelementptr inbounds [3 x [4 x i8]], ptr @chroma_dc_total_zeros_len, i64 0, i64 %79
  %81 = getelementptr inbounds [4 x i8], ptr %80, i64 0, i64 0
  %82 = load i32, ptr %6, align 4, !tbaa !4
  %83 = sext i32 %82 to i64
  %84 = getelementptr inbounds [3 x [4 x i8]], ptr @chroma_dc_total_zeros_bits, i64 0, i64 %83
  %85 = getelementptr inbounds [4 x i8], ptr %84, i64 0, i64 0
  %86 = call ptr @ff_vlc_init_tables(ptr noundef %2, i32 noundef 3, i32 noundef 4, ptr noundef %81, i32 noundef 1, i32 noundef 1, ptr noundef %85, i32 noundef 1, i32 noundef 1, i32 noundef 0)
  %87 = load i32, ptr %6, align 4, !tbaa !4
  %88 = add nsw i32 %87, 1
  %89 = sext i32 %88 to i64
  %90 = getelementptr inbounds [4 x ptr], ptr @chroma_dc_total_zeros_vlc, i64 0, i64 %89
  store ptr %86, ptr %90, align 8, !tbaa !8
  br label %91

91:                                               ; preds = %77
  %92 = load i32, ptr %6, align 4, !tbaa !4
  %93 = add nsw i32 %92, 1
  store i32 %93, ptr %6, align 4, !tbaa !4
  br label %73, !llvm.loop !16

94:                                               ; preds = %76
  call void @llvm.lifetime.start.p0(i64 4, ptr %7) #10
  store i32 0, ptr %7, align 4, !tbaa !4
  br label %95

95:                                               ; preds = %113, %94
  %96 = load i32, ptr %7, align 4, !tbaa !4
  %97 = icmp slt i32 %96, 7
  br i1 %97, label %99, label %98

98:                                               ; preds = %95
  call void @llvm.lifetime.end.p0(i64 4, ptr %7) #10
  br label %116

99:                                               ; preds = %95
  %100 = load i32, ptr %7, align 4, !tbaa !4
  %101 = sext i32 %100 to i64
  %102 = getelementptr inbounds [7 x [8 x i8]], ptr @chroma422_dc_total_zeros_len, i64 0, i64 %101
  %103 = getelementptr inbounds [8 x i8], ptr %102, i64 0, i64 0
  %104 = load i32, ptr %7, align 4, !tbaa !4
  %105 = sext i32 %104 to i64
  %106 = getelementptr inbounds [7 x [8 x i8]], ptr @chroma422_dc_total_zeros_bits, i64 0, i64 %105
  %107 = getelementptr inbounds [8 x i8], ptr %106, i64 0, i64 0
  %108 = call ptr @ff_vlc_init_tables(ptr noundef %2, i32 noundef 5, i32 noundef 8, ptr noundef %103, i32 noundef 1, i32 noundef 1, ptr noundef %107, i32 noundef 1, i32 noundef 1, i32 noundef 0)
  %109 = load i32, ptr %7, align 4, !tbaa !4
  %110 = add nsw i32 %109, 1
  %111 = sext i32 %110 to i64
  %112 = getelementptr inbounds [8 x ptr], ptr @chroma422_dc_total_zeros_vlc, i64 0, i64 %111
  store ptr %108, ptr %112, align 8, !tbaa !8
  br label %113

113:                                              ; preds = %99
  %114 = load i32, ptr %7, align 4, !tbaa !4
  %115 = add nsw i32 %114, 1
  store i32 %115, ptr %7, align 4, !tbaa !4
  br label %95, !llvm.loop !17

116:                                              ; preds = %98
  call void @llvm.lifetime.start.p0(i64 4, ptr %8) #10
  store i32 0, ptr %8, align 4, !tbaa !4
  br label %117

117:                                              ; preds = %135, %116
  %118 = load i32, ptr %8, align 4, !tbaa !4
  %119 = icmp slt i32 %118, 15
  br i1 %119, label %121, label %120

120:                                              ; preds = %117
  call void @llvm.lifetime.end.p0(i64 4, ptr %8) #10
  br label %138

121:                                              ; preds = %117
  %122 = load i32, ptr %8, align 4, !tbaa !4
  %123 = sext i32 %122 to i64
  %124 = getelementptr inbounds [16 x [16 x i8]], ptr @total_zeros_len, i64 0, i64 %123
  %125 = getelementptr inbounds [16 x i8], ptr %124, i64 0, i64 0
  %126 = load i32, ptr %8, align 4, !tbaa !4
  %127 = sext i32 %126 to i64
  %128 = getelementptr inbounds [16 x [16 x i8]], ptr @total_zeros_bits, i64 0, i64 %127
  %129 = getelementptr inbounds [16 x i8], ptr %128, i64 0, i64 0
  %130 = call ptr @ff_vlc_init_tables(ptr noundef %2, i32 noundef 9, i32 noundef 16, ptr noundef %125, i32 noundef 1, i32 noundef 1, ptr noundef %129, i32 noundef 1, i32 noundef 1, i32 noundef 0)
  %131 = load i32, ptr %8, align 4, !tbaa !4
  %132 = add nsw i32 %131, 1
  %133 = sext i32 %132 to i64
  %134 = getelementptr inbounds [16 x ptr], ptr @total_zeros_vlc, i64 0, i64 %133
  store ptr %130, ptr %134, align 8, !tbaa !8
  br label %135

135:                                              ; preds = %121
  %136 = load i32, ptr %8, align 4, !tbaa !4
  %137 = add nsw i32 %136, 1
  store i32 %137, ptr %8, align 4, !tbaa !4
  br label %117, !llvm.loop !18

138:                                              ; preds = %120
  call void @init_cavlc_level_tab() #11
  call void @llvm.lifetime.end.p0(i64 16, ptr %2) #10
  call void @llvm.lifetime.end.p0(i64 32, ptr %1) #10
  ret void
}