; Function Attrs: cold nounwind optsize uwtable
define void @ff_h264_decode_init_vlc() local_unnamed_addr #0 {
  %1 = alloca [4 x ptr], align 16
  %2 = alloca %struct.VLCInitState, align 8
  call void @llvm.lifetime.start.p0(i64 32, ptr nonnull %1) #10
  call void @llvm.lifetime.start.p0(i64 16, ptr nonnull %2) #10
  call void @llvm.memcpy.p0.p0.i64(ptr noundef nonnull align 8 dereferenceable(16) %2, ptr noundef nonnull align 8 dereferenceable(16) @__const.ff_h264_decode_init_vlc.state, i64 16, i1 false)
  tail call void @ff_vlc_init_table_sparse(ptr noundef nonnull @chroma_dc_coeff_token_vlc_table, i32 noundef 256, i32 noundef 8, i32 noundef 20, ptr noundef nonnull @chroma_dc_coeff_token_len, i32 noundef 1, i32 noundef 1, ptr noundef nonnull @chroma_dc_coeff_token_bits, i32 noundef 1, i32 noundef 1, ptr noundef null, i32 noundef 0, i32 noundef 0, i32 noundef 0) #10
  tail call void @ff_vlc_init_table_sparse(ptr noundef nonnull @chroma422_dc_coeff_token_vlc_table, i32 noundef 8192, i32 noundef 13, i32 noundef 36, ptr noundef nonnull @chroma422_dc_coeff_token_len, i32 noundef 1, i32 noundef 1, ptr noundef nonnull @chroma422_dc_coeff_token_bits, i32 noundef 1, i32 noundef 1, ptr noundef null, i32 noundef 0, i32 noundef 0, i32 noundef 0) #10
  %3 = call ptr @ff_vlc_init_tables_sparse(ptr noundef nonnull %2, i32 noundef 6, i32 noundef 16, ptr noundef nonnull getelementptr inbounds nuw (i8, ptr @run_len, i64 96), i32 noundef 1, i32 noundef 1, ptr noundef nonnull getelementptr inbounds nuw (i8, ptr @run_bits, i64 96), i32 noundef 1, i32 noundef 1, ptr noundef null, i32 noundef 0, i32 noundef 0, i32 noundef 0) #10
  br label %4

4:                                                ; preds = %0, %4
  %indvars.iv = phi i64 [ 0, %0 ], [ %indvars.iv.next, %4 ]
  %5 = getelementptr inbounds nuw [7 x [16 x i8]], ptr @run_len, i64 0, i64 %indvars.iv
  %6 = getelementptr inbounds nuw [7 x [16 x i8]], ptr @run_bits, i64 0, i64 %indvars.iv
  %7 = call ptr @ff_vlc_init_tables_sparse(ptr noundef nonnull %2, i32 noundef 3, i32 noundef 7, ptr noundef nonnull %5, i32 noundef 1, i32 noundef 1, ptr noundef nonnull %6, i32 noundef 1, i32 noundef 1, ptr noundef null, i32 noundef 0, i32 noundef 0, i32 noundef 0) #10
  %indvars.iv.next = add nuw nsw i64 %indvars.iv, 1
  %8 = getelementptr inbounds nuw [7 x ptr], ptr @run_vlc, i64 0, i64 %indvars.iv.next
  store ptr %7, ptr %8, align 8, !tbaa !4
  %exitcond.not = icmp eq i64 %indvars.iv.next, 6
  br i1 %exitcond.not, label %.preheader38, label %4, !llvm.loop !9

.preheader38:                                     ; preds = %4, %.preheader38
  %indvars.iv46 = phi i64 [ %indvars.iv.next47, %.preheader38 ], [ 0, %4 ]
  %9 = getelementptr inbounds nuw [4 x [68 x i8]], ptr @coeff_token_len, i64 0, i64 %indvars.iv46
  %10 = getelementptr inbounds nuw [4 x [68 x i8]], ptr @coeff_token_bits, i64 0, i64 %indvars.iv46
  %11 = call ptr @ff_vlc_init_tables_sparse(ptr noundef nonnull %2, i32 noundef 8, i32 noundef 68, ptr noundef nonnull %9, i32 noundef 1, i32 noundef 1, ptr noundef nonnull %10, i32 noundef 1, i32 noundef 1, ptr noundef null, i32 noundef 0, i32 noundef 0, i32 noundef 0) #10
  %12 = getelementptr inbounds nuw [4 x ptr], ptr %1, i64 0, i64 %indvars.iv46
  store ptr %11, ptr %12, align 8, !tbaa !4
  %indvars.iv.next47 = add nuw nsw i64 %indvars.iv46, 1
  %exitcond49.not = icmp eq i64 %indvars.iv.next47, 4
  br i1 %exitcond49.not, label %.preheader37, label %.preheader38, !llvm.loop !11

.preheader37:                                     ; preds = %.preheader38, %.preheader37
  %indvars.iv50 = phi i64 [ %indvars.iv.next51, %.preheader37 ], [ 0, %.preheader38 ]
  %13 = getelementptr inbounds nuw [17 x i8], ptr @ff_h264_decode_init_vlc.coeff_token_table_index, i64 0, i64 %indvars.iv50
  %14 = load i8, ptr %13, align 1, !tbaa !12
  %15 = zext i8 %14 to i64
  %16 = getelementptr inbounds nuw [4 x ptr], ptr %1, i64 0, i64 %15
  %17 = load ptr, ptr %16, align 8, !tbaa !4
  %18 = getelementptr inbounds nuw [17 x ptr], ptr @coeff_token_vlc, i64 0, i64 %indvars.iv50
  store ptr %17, ptr %18, align 8, !tbaa !4
  %indvars.iv.next51 = add nuw nsw i64 %indvars.iv50, 1
  %exitcond53.not = icmp eq i64 %indvars.iv.next51, 17
  br i1 %exitcond53.not, label %.preheader36, label %.preheader37, !llvm.loop !13

.preheader36:                                     ; preds = %.preheader37, %.preheader36
  %indvars.iv54 = phi i64 [ %indvars.iv.next55, %.preheader36 ], [ 0, %.preheader37 ]
  %19 = getelementptr inbounds nuw [3 x [4 x i8]], ptr @chroma_dc_total_zeros_len, i64 0, i64 %indvars.iv54
  %20 = getelementptr inbounds nuw [3 x [4 x i8]], ptr @chroma_dc_total_zeros_bits, i64 0, i64 %indvars.iv54
  %21 = call ptr @ff_vlc_init_tables_sparse(ptr noundef nonnull %2, i32 noundef 3, i32 noundef 4, ptr noundef nonnull %19, i32 noundef 1, i32 noundef 1, ptr noundef nonnull %20, i32 noundef 1, i32 noundef 1, ptr noundef null, i32 noundef 0, i32 noundef 0, i32 noundef 0) #10
  %indvars.iv.next55 = add nuw nsw i64 %indvars.iv54, 1
  %22 = getelementptr inbounds nuw [4 x ptr], ptr @chroma_dc_total_zeros_vlc, i64 0, i64 %indvars.iv.next55
  store ptr %21, ptr %22, align 8, !tbaa !4
  %exitcond57.not = icmp eq i64 %indvars.iv.next55, 3
  br i1 %exitcond57.not, label %.preheader35, label %.preheader36, !llvm.loop !14

.preheader35:                                     ; preds = %.preheader36, %.preheader35
  %indvars.iv58 = phi i64 [ %indvars.iv.next59, %.preheader35 ], [ 0, %.preheader36 ]
  %23 = getelementptr inbounds nuw [7 x [8 x i8]], ptr @chroma422_dc_total_zeros_len, i64 0, i64 %indvars.iv58
  %24 = getelementptr inbounds nuw [7 x [8 x i8]], ptr @chroma422_dc_total_zeros_bits, i64 0, i64 %indvars.iv58
  %25 = call ptr @ff_vlc_init_tables_sparse(ptr noundef nonnull %2, i32 noundef 5, i32 noundef 8, ptr noundef nonnull %23, i32 noundef 1, i32 noundef 1, ptr noundef nonnull %24, i32 noundef 1, i32 noundef 1, ptr noundef null, i32 noundef 0, i32 noundef 0, i32 noundef 0) #10
  %indvars.iv.next59 = add nuw nsw i64 %indvars.iv58, 1
  %26 = getelementptr inbounds nuw [8 x ptr], ptr @chroma422_dc_total_zeros_vlc, i64 0, i64 %indvars.iv.next59
  store ptr %25, ptr %26, align 8, !tbaa !4
  %exitcond61.not = icmp eq i64 %indvars.iv.next59, 7
  br i1 %exitcond61.not, label %.preheader, label %.preheader35, !llvm.loop !15

27:                                               ; preds = %.preheader
  call fastcc void @init_cavlc_level_tab() #11
  call void @llvm.lifetime.end.p0(i64 16, ptr nonnull %2) #10
  call void @llvm.lifetime.end.p0(i64 32, ptr nonnull %1) #10
  ret void

.preheader:                                       ; preds = %.preheader35, %.preheader
  %indvars.iv62 = phi i64 [ %indvars.iv.next63, %.preheader ], [ 0, %.preheader35 ]
  %28 = getelementptr inbounds nuw [16 x [16 x i8]], ptr @total_zeros_len, i64 0, i64 %indvars.iv62
  %29 = getelementptr inbounds nuw [16 x [16 x i8]], ptr @total_zeros_bits, i64 0, i64 %indvars.iv62
  %30 = call ptr @ff_vlc_init_tables_sparse(ptr noundef nonnull %2, i32 noundef 9, i32 noundef 16, ptr noundef nonnull %28, i32 noundef 1, i32 noundef 1, ptr noundef nonnull %29, i32 noundef 1, i32 noundef 1, ptr noundef null, i32 noundef 0, i32 noundef 0, i32 noundef 0) #10
  %indvars.iv.next63 = add nuw nsw i64 %indvars.iv62, 1
  %31 = getelementptr inbounds nuw [16 x ptr], ptr @total_zeros_vlc, i64 0, i64 %indvars.iv.next63
  store ptr %30, ptr %31, align 8, !tbaa !4
  %exitcond65.not = icmp eq i64 %indvars.iv.next63, 15
  br i1 %exitcond65.not, label %27, label %.preheader, !llvm.loop !16
}